target datalayout = "e-m:e-p270:32:32-p271:32:32-p272:64:64-i64:64-i128:128-f80:128-n8:16:32:64-S128"
target triple = "x86_64-pc-linux-gnu"

%class.symbol = type { ptr }
%class.pb_decl_plugin = type { %class.decl_plugin.base, %class.symbol, %class.symbol, %class.symbol, %class.symbol, %class.symbol }
%class.decl_plugin.base = type <{ ptr, ptr, i32 }>
%class.decl_plugin = type <{ ptr, ptr, i32, [4 x i8] }>

@.str = private unnamed_addr constant [8 x i8] c"at-most\00", align 1
@.str.1 = private unnamed_addr constant [9 x i8] c"at-least\00", align 1
@.str.2 = private unnamed_addr constant [5 x i8] c"pble\00", align 1
@.str.3 = private unnamed_addr constant [5 x i8] c"pbge\00", align 1
@.str.4 = private unnamed_addr constant [5 x i8] c"pbeq\00", align 1
@_ZTV11decl_plugin = external unnamed_addr constant { [23 x ptr] }, align 8

; Function Attrs: mustprogress nounwind uwtable
define linkonce_odr hidden void @_ZN11decl_pluginD2Ev(ptr noundef nonnull align 8 dereferenceable(20) %0) unnamed_addr #7 comdat align 2 {
  %2 = alloca ptr, align 8
  store ptr %0, ptr %2, align 8, !tbaa !10
  ret void
}

; Function Attrs: inlinehint mustprogress nounwind uwtable
define linkonce_odr hidden void @_ZN11decl_pluginC2Ev(ptr noundef nonnull align 8 dereferenceable(20) %0) unnamed_addr #5 comdat align 2 {
  %2 = alloca ptr, align 8
  store ptr %0, ptr %2, align 8, !tbaa !10
  %3 = load ptr, ptr %2, align 8
  store ptr getelementptr inbounds inrange(-16, 168) ({ [23 x ptr] }, ptr @_ZTV11decl_plugin, i32 0, i32 0, i32 2), ptr %3, align 8, !tbaa !8
  %4 = getelementptr inbounds nuw %class.decl_plugin, ptr %3, i32 0, i32 1
  store ptr null, ptr %4, align 8, !tbaa !12
  %5 = getelementptr inbounds nuw %class.decl_plugin, ptr %3, i32 0, i32 2
  store i32 -1, ptr %5, align 8, !tbaa !16
  ret void
}

; Function Attrs: mustprogress uwtable
define hidden void @_ZN14pb_decl_pluginC2Ev(ptr noundef nonnull align 8 dereferenceable(64) %0) unnamed_addr #4 align 2 personality ptr @__gxx_personality_v0 {
  %2 = alloca ptr, align 8
  %3 = alloca ptr, align 8
  %4 = alloca i32, align 4
  store ptr %0, ptr %2, align 8, !tbaa !3
  %5 = load ptr, ptr %2, align 8
  call void @_ZN11decl_pluginC2Ev(ptr noundef nonnull align 8 dereferenceable(20) %5) #3
  store ptr getelementptr inbounds inrange(-16, 168) ({ [23 x ptr] }, ptr @_ZTV14pb_decl_plugin, i32 0, i32 0, i32 2), ptr %5, align 8, !tbaa !8
  %6 = getelementptr inbounds nuw %class.pb_decl_plugin, ptr %5, i32 0, i32 1
  invoke void @_ZN6symbolC1EPKc(ptr noundef nonnull align 8 dereferenceable(8) %6, ptr noundef @.str)
          to label %7 unwind label %16

7:                                                ; preds = %1
  %8 = getelementptr inbounds nuw %class.pb_decl_plugin, ptr %5, i32 0, i32 2
  invoke void @_ZN6symbolC1EPKc(ptr noundef nonnull align 8 dereferenceable(8) %8, ptr noundef @.str.1)
          to label %9 unwind label %16

9:                                                ; preds = %7
  %10 = getelementptr inbounds nuw %class.pb_decl_plugin, ptr %5, i32 0, i32 3
  invoke void @_ZN6symbolC1EPKc(ptr noundef nonnull align 8 dereferenceable(8) %10, ptr noundef @.str.2)
          to label %11 unwind label %16

11:                                               ; preds = %9
  %12 = getelementptr inbounds nuw %class.pb_decl_plugin, ptr %5, i32 0, i32 4
  invoke void @_ZN6symbolC1EPKc(ptr noundef nonnull align 8 dereferenceable(8) %12, ptr noundef @.str.3)
          to label %13 unwind label %16

13:                                               ; preds = %11
  %14 = getelementptr inbounds nuw %class.pb_decl_plugin, ptr %5, i32 0, i32 5
  invoke void @_ZN6symbolC1EPKc(ptr noundef nonnull align 8 dereferenceable(8) %14, ptr noundef @.str.4)
          to label %15 unwind label %16

15:                                               ; preds = %13
  ret void

16:                                               ; preds = %13, %11, %9, %7, %1
  %17 = landingpad { ptr, i32 }
          cleanup
  %18 = extractvalue { ptr, i32 } %17, 0
  store ptr %18, ptr %3, align 8
  %19 = extractvalue { ptr, i32 } %17, 1
  store i32 %19, ptr %4, align 4
  call void @_ZN11decl_pluginD2Ev(ptr noundef nonnull align 8 dereferenceable(20) %5) #3
  br label %20

20:                                               ; preds = %16
  %21 = load ptr, ptr %3, align 8
  %22 = load i32, ptr %4, align 4
  %23 = insertvalue { ptr, i32 } poison, ptr %21, 0
  %24 = insertvalue { ptr, i32 } %23, i32 %22, 1
  resume { ptr, i32 } %24
}