; Function Attrs: mustprogress uwtable
define hidden void @_ZN14pb_decl_pluginC2Ev(ptr noundef nonnull align 8 dereferenceable(64) initializes((0, 20)) %0) unnamed_addr #3 align 2 personality ptr @__gxx_personality_v0 {
  %2 = getelementptr inbounds nuw i8, ptr %0, i64 8
  store ptr null, ptr %2, align 8, !tbaa !3
  %3 = getelementptr inbounds nuw i8, ptr %0, i64 16
  store i32 -1, ptr %3, align 8, !tbaa !10
  store ptr getelementptr inbounds nuw inrange(-16, 168) (i8, ptr @_ZTV14pb_decl_plugin, i64 16), ptr %0, align 8, !tbaa !11
  %4 = getelementptr inbounds nuw i8, ptr %0, i64 24
  tail call void @_ZN6symbolC1EPKc(ptr noundef nonnull align 8 dereferenceable(8) %4, ptr noundef nonnull @.str)
  %5 = getelementptr inbounds nuw i8, ptr %0, i64 32
  tail call void @_ZN6symbolC1EPKc(ptr noundef nonnull align 8 dereferenceable(8) %5, ptr noundef nonnull @.str.1)
  %6 = getelementptr inbounds nuw i8, ptr %0, i64 40
  tail call void @_ZN6symbolC1EPKc(ptr noundef nonnull align 8 dereferenceable(8) %6, ptr noundef nonnull @.str.2)
  %7 = getelementptr inbounds nuw i8, ptr %0, i64 48
  tail call void @_ZN6symbolC1EPKc(ptr noundef nonnull align 8 dereferenceable(8) %7, ptr noundef nonnull @.str.3)
  %8 = getelementptr inbounds nuw i8, ptr %0, i64 56
  tail call void @_ZN6symbolC1EPKc(ptr noundef nonnull align 8 dereferenceable(8) %8, ptr noundef nonnull @.str.4)
  ret void
}